; Function Attrs: mustprogress nofree norecurse nosync nounwind willreturn memory(argmem: write) uwtable
define void @_ZN3vcg17NavigatorWasdModeC2Ev(ptr nocapture noundef nonnull writeonly align 8 dereferenceable(80) %0) unnamed_addr #8 align 2 personality ptr @__gxx_personality_v0 {
  store ptr getelementptr inbounds ({ [14 x ptr] }, ptr @_ZTVN3vcg17NavigatorWasdModeE, i64 0, i32 0, i64 2), ptr %0, align 8
  %2 = getelementptr inbounds i8, ptr %0, i64 40
  store i32 1, ptr %2, align 8
  %3 = getelementptr inbounds i8, ptr %0, i64 44
  store i32 1, ptr %3, align 4
  %4 = getelementptr inbounds i8, ptr %0, i64 48
  store <4 x float> <float 0x3ED0C6F7A0000000, float 0x3ED0C6F7A0000000, float 0x3ED0C70000000000, float 0x3FEFDF5CC0000000>, ptr %4, align 8
  %5 = getelementptr inbounds i8, ptr %0, i64 64
  store <4 x float> <float 0x3F50624DE0000000, float 0x3F50624DE0000000, float 0.000000e+00, float 0.000000e+00>, ptr %5, align 8
  %6 = getelementptr inbounds i8, ptr %0, i64 8
  tail call void @llvm.memset.p0.i64(ptr noundef nonnull align 8 dereferenceable(32) %6, i8 0, i64 32, i1 false)
  ret void
}